target datalayout = "e-m:e-p270:32:32-p271:32:32-p272:64:64-i64:64-i128:128-f80:128-n8:16:32:64-S128"
target triple = "x86_64-pc-linux-gnu"

%struct.uv__queue = type { ptr, ptr }
%struct.uv__io_s = type { ptr, %struct.uv__queue, %struct.uv__queue, i32, i32, i32 }
%struct.uv_stream_s = type { ptr, ptr, i32, ptr, %struct.uv__queue, %union.anon, ptr, i32, i64, ptr, ptr, ptr, ptr, %struct.uv__io_s, %struct.uv__queue, %struct.uv__queue, ptr, i32, i32, ptr }
%union.anon = type { [4 x ptr] }
%struct.uv_buf_t = type { ptr, i64 }
%struct.uv_write_s = type { ptr, i32, [6 x ptr], ptr, ptr, ptr, %struct.uv__queue, i32, ptr, i32, i32, [4 x %struct.uv_buf_t] }

; Function Attrs: inlinehint nounwind uwtable
define internal void @uv__queue_insert_tail(ptr noundef %0, ptr noundef %1) #2 {
  %3 = alloca ptr, align 8
  %4 = alloca ptr, align 8
  store ptr %0, ptr %3, align 8
  store ptr %1, ptr %4, align 8
  %5 = load ptr, ptr %3, align 8
  %6 = load ptr, ptr %4, align 8
  %7 = getelementptr inbounds nuw %struct.uv__queue, ptr %6, i32 0, i32 0
  store ptr %5, ptr %7, align 8
  %8 = load ptr, ptr %3, align 8
  %9 = getelementptr inbounds nuw %struct.uv__queue, ptr %8, i32 0, i32 1
  %10 = load ptr, ptr %9, align 8
  %11 = load ptr, ptr %4, align 8
  %12 = getelementptr inbounds nuw %struct.uv__queue, ptr %11, i32 0, i32 1
  store ptr %10, ptr %12, align 8
  %13 = load ptr, ptr %4, align 8
  %14 = load ptr, ptr %4, align 8
  %15 = getelementptr inbounds nuw %struct.uv__queue, ptr %14, i32 0, i32 1
  %16 = load ptr, ptr %15, align 8
  %17 = getelementptr inbounds nuw %struct.uv__queue, ptr %16, i32 0, i32 0
  store ptr %13, ptr %17, align 8
  %18 = load ptr, ptr %4, align 8
  %19 = load ptr, ptr %3, align 8
  %20 = getelementptr inbounds nuw %struct.uv__queue, ptr %19, i32 0, i32 1
  store ptr %18, ptr %20, align 8
  ret void
}

; Function Attrs: inlinehint nounwind uwtable
define internal void @uv__queue_remove(ptr noundef %0) #2 {
  %2 = alloca ptr, align 8
  store ptr %0, ptr %2, align 8
  %3 = load ptr, ptr %2, align 8
  %4 = getelementptr inbounds nuw %struct.uv__queue, ptr %3, i32 0, i32 0
  %5 = load ptr, ptr %4, align 8
  %6 = load ptr, ptr %2, align 8
  %7 = getelementptr inbounds nuw %struct.uv__queue, ptr %6, i32 0, i32 1
  %8 = load ptr, ptr %7, align 8
  %9 = getelementptr inbounds nuw %struct.uv__queue, ptr %8, i32 0, i32 0
  store ptr %5, ptr %9, align 8
  %10 = load ptr, ptr %2, align 8
  %11 = getelementptr inbounds nuw %struct.uv__queue, ptr %10, i32 0, i32 1
  %12 = load ptr, ptr %11, align 8
  %13 = load ptr, ptr %2, align 8
  %14 = getelementptr inbounds nuw %struct.uv__queue, ptr %13, i32 0, i32 0
  %15 = load ptr, ptr %14, align 8
  %16 = getelementptr inbounds nuw %struct.uv__queue, ptr %15, i32 0, i32 1
  store ptr %12, ptr %16, align 8
  ret void
}

; Function Attrs: inlinehint nounwind uwtable
define internal ptr @uv__queue_head(ptr noundef %0) #2 {
  %2 = alloca ptr, align 8
  store ptr %0, ptr %2, align 8
  %3 = load ptr, ptr %2, align 8
  %4 = getelementptr inbounds nuw %struct.uv__queue, ptr %3, i32 0, i32 0
  %5 = load ptr, ptr %4, align 8
  ret ptr %5
}

; Function Attrs: inlinehint nounwind uwtable
define internal i32 @uv__queue_empty(ptr noundef %0) #2 {
  %2 = alloca ptr, align 8
  store ptr %0, ptr %2, align 8
  %3 = load ptr, ptr %2, align 8
  %4 = load ptr, ptr %2, align 8
  %5 = getelementptr inbounds nuw %struct.uv__queue, ptr %4, i32 0, i32 0
  %6 = load ptr, ptr %5, align 8
  %7 = icmp eq ptr %3, %6
  %8 = zext i1 %7 to i32
  ret i32 %8
}

; Function Attrs: nounwind uwtable
define hidden void @uv__stream_flush_write_queue(ptr noundef %0, i32 noundef %1) #0 {
  %3 = alloca ptr, align 8
  %4 = alloca i32, align 4
  %5 = alloca ptr, align 8
  %6 = alloca ptr, align 8
  store ptr %0, ptr %3, align 8
  store i32 %1, ptr %4, align 4
  call void @llvm.lifetime.start.p0(i64 8, ptr %5) #8
  call void @llvm.lifetime.start.p0(i64 8, ptr %6) #8
  br label %7

7:                                                ; preds = %13, %2
  %8 = load ptr, ptr %3, align 8
  %9 = getelementptr inbounds nuw %struct.uv_stream_s, ptr %8, i32 0, i32 14
  %10 = call i32 @uv__queue_empty(ptr noundef %9)
  %11 = icmp ne i32 %10, 0
  %12 = xor i1 %11, true
  br i1 %12, label %13, label %27

13:                                               ; preds = %7
  %14 = load ptr, ptr %3, align 8
  %15 = getelementptr inbounds nuw %struct.uv_stream_s, ptr %14, i32 0, i32 14
  %16 = call ptr @uv__queue_head(ptr noundef %15)
  store ptr %16, ptr %6, align 8
  %17 = load ptr, ptr %6, align 8
  call void @uv__queue_remove(ptr noundef %17)
  %18 = load ptr, ptr %6, align 8
  %19 = getelementptr inbounds i8, ptr %18, i64 -88
  store ptr %19, ptr %5, align 8
  %20 = load i32, ptr %4, align 4
  %21 = load ptr, ptr %5, align 8
  %22 = getelementptr inbounds nuw %struct.uv_write_s, ptr %21, i32 0, i32 10
  store i32 %20, ptr %22, align 4
  %23 = load ptr, ptr %3, align 8
  %24 = getelementptr inbounds nuw %struct.uv_stream_s, ptr %23, i32 0, i32 15
  %25 = load ptr, ptr %5, align 8
  %26 = getelementptr inbounds nuw %struct.uv_write_s, ptr %25, i32 0, i32 6
  call void @uv__queue_insert_tail(ptr noundef %24, ptr noundef %26)
  br label %7

27:                                               ; preds = %7
  call void @llvm.lifetime.end.p0(i64 8, ptr %6) #8
  call void @llvm.lifetime.end.p0(i64 8, ptr %5) #8
  ret void
}