; Function Attrs: nofree norecurse nosync nounwind memory(readwrite, inaccessiblemem: none) uwtable
define hidden void @uv__stream_flush_write_queue(ptr noundef %0, i32 noundef %1) local_unnamed_addr #4 {
  %3 = getelementptr inbounds nuw i8, ptr %0, i64 192
  %4 = load ptr, ptr %3, align 8
  %.not7 = icmp eq ptr %3, %4
  br i1 %.not7, label %._crit_edge, label %.lr.ph

.lr.ph:                                           ; preds = %2
  %5 = getelementptr inbounds nuw i8, ptr %0, i64 208
  %6 = getelementptr inbounds nuw i8, ptr %0, i64 216
  br label %7

7:                                                ; preds = %.lr.ph, %7
  %8 = phi ptr [ %4, %.lr.ph ], [ %16, %7 ]
  %9 = load ptr, ptr %8, align 8
  %10 = getelementptr inbounds nuw i8, ptr %8, i64 8
  %11 = load ptr, ptr %10, align 8
  store ptr %9, ptr %11, align 8
  %12 = load ptr, ptr %10, align 8
  %13 = getelementptr inbounds nuw i8, ptr %9, i64 8
  store ptr %12, ptr %13, align 8
  %14 = getelementptr inbounds nuw i8, ptr %8, i64 36
  store i32 %1, ptr %14, align 4
  store ptr %5, ptr %8, align 8
  %15 = load ptr, ptr %6, align 8
  store ptr %15, ptr %10, align 8
  store ptr %8, ptr %15, align 8
  store ptr %8, ptr %6, align 8
  %16 = load ptr, ptr %3, align 8
  %.not = icmp eq ptr %3, %16
  br i1 %.not, label %._crit_edge, label %7

._crit_edge:                                      ; preds = %7, %2
  ret void
}